; Function Attrs: mustprogress nofree norecurse nosync nounwind willreturn memory(none) uwtable
define internal fastcc range(i32 1, 40) i32 @H5VM_limit_enc_size(i64 noundef %0) unnamed_addr #4 {
  %2 = lshr i64 %0, 32
  %.not.i = icmp ult i64 %0, 4294967296
  br i1 %.not.i, label %31, label %3

3:                                                ; preds = %1
  %4 = lshr i64 %0, 48
  %.not26.i = icmp ult i64 %0, 281474976710656
  br i1 %.not26.i, label %18, label %5

5:                                                ; preds = %3
  %.not28.i = icmp ult i64 %0, 72057594037927936
  br i1 %.not28.i, label %12, label %6

6:                                                ; preds = %5
  %7 = lshr i64 %0, 56
  %8 = getelementptr inbounds [256 x i8], ptr @LogTable256, i64 0, i64 %7
  %9 = load i8, ptr %8, align 1
  %10 = zext i8 %9 to i32
  %11 = add nuw nsw i32 %10, 56
  br label %H5VM_log2_gen.exit

12:                                               ; preds = %5
  %13 = and i64 %4, 255
  %14 = getelementptr inbounds [256 x i8], ptr @LogTable256, i64 0, i64 %13
  %15 = load i8, ptr %14, align 1
  %16 = zext i8 %15 to i32
  %17 = add nuw nsw i32 %16, 48
  br label %H5VM_log2_gen.exit

18:                                               ; preds = %3
  %.not27.i = icmp ult i64 %0, 1099511627776
  br i1 %.not27.i, label %25, label %19

19:                                               ; preds = %18
  %20 = lshr i64 %0, 40
  %21 = getelementptr inbounds [256 x i8], ptr @LogTable256, i64 0, i64 %20
  %22 = load i8, ptr %21, align 1
  %23 = zext i8 %22 to i32
  %24 = add nuw nsw i32 %23, 40
  br label %H5VM_log2_gen.exit

25:                                               ; preds = %18
  %26 = and i64 %2, 255
  %27 = getelementptr inbounds [256 x i8], ptr @LogTable256, i64 0, i64 %26
  %28 = load i8, ptr %27, align 1
  %29 = zext i8 %28 to i32
  %30 = add nuw nsw i32 %29, 32
  br label %H5VM_log2_gen.exit

31:                                               ; preds = %1
  %32 = lshr i64 %0, 16
  %.not23.i = icmp ult i64 %0, 65536
  br i1 %.not23.i, label %46, label %33

33:                                               ; preds = %31
  %.not25.i = icmp ult i64 %0, 16777216
  br i1 %.not25.i, label %40, label %34

34:                                               ; preds = %33
  %35 = lshr i64 %0, 24
  %36 = getelementptr inbounds [256 x i8], ptr @LogTable256, i64 0, i64 %35
  %37 = load i8, ptr %36, align 1
  %38 = zext i8 %37 to i32
  %39 = add nuw nsw i32 %38, 24
  br label %H5VM_log2_gen.exit

40:                                               ; preds = %33
  %41 = and i64 %32, 255
  %42 = getelementptr inbounds [256 x i8], ptr @LogTable256, i64 0, i64 %41
  %43 = load i8, ptr %42, align 1
  %44 = zext i8 %43 to i32
  %45 = add nuw nsw i32 %44, 16
  br label %H5VM_log2_gen.exit

46:                                               ; preds = %31
  %.not24.i = icmp ult i64 %0, 256
  br i1 %.not24.i, label %53, label %47

47:                                               ; preds = %46
  %48 = lshr i64 %0, 8
  %49 = getelementptr inbounds [256 x i8], ptr @LogTable256, i64 0, i64 %48
  %50 = load i8, ptr %49, align 1
  %51 = zext i8 %50 to i32
  %52 = add nuw nsw i32 %51, 8
  br label %H5VM_log2_gen.exit

53:                                               ; preds = %46
  %54 = getelementptr inbounds [256 x i8], ptr @LogTable256, i64 0, i64 %0
  %55 = load i8, ptr %54, align 1
  %56 = zext i8 %55 to i32
  br label %H5VM_log2_gen.exit

H5VM_log2_gen.exit:                               ; preds = %6, %12, %19, %25, %34, %40, %47, %53
  %.0.i = phi i32 [ %11, %6 ], [ %17, %12 ], [ %24, %19 ], [ %30, %25 ], [ %39, %34 ], [ %45, %40 ], [ %52, %47 ], [ %56, %53 ]
  %57 = lshr i32 %.0.i, 3
  %58 = add nuw nsw i32 %57, 1
  ret i32 %58
}